target datalayout = "e-m:e-p270:32:32-p271:32:32-p272:64:64-i64:64-i128:128-f80:128-n8:16:32:64-S128"
target triple = "x86_64-pc-linux-gnu"

%"class.cv::ximgproc::segmentation::PointSet" = type { i32, ptr }
%"class.cv::ximgproc::segmentation::PointSetElement" = type { i32, i32 }

; Function Attrs: mustprogress nounwind uwtable
define linkonce_odr hidden void @_ZN2cv8ximgproc12segmentation15PointSetElementC2Ei(ptr noundef nonnull align 4 dereferenceable(8) %0, i32 noundef %1) unnamed_addr #11 comdat align 2 {
  %3 = alloca ptr, align 8
  %4 = alloca i32, align 4
  store ptr %0, ptr %3, align 8, !tbaa !98
  store i32 %1, ptr %4, align 4, !tbaa !27
  %5 = load ptr, ptr %3, align 8
  %6 = load i32, ptr %4, align 4, !tbaa !27
  %7 = getelementptr inbounds nuw %"class.cv::ximgproc::segmentation::PointSetElement", ptr %5, i32 0, i32 0
  store i32 %6, ptr %7, align 4, !tbaa !73
  %8 = getelementptr inbounds nuw %"class.cv::ximgproc::segmentation::PointSetElement", ptr %5, i32 0, i32 1
  store i32 1, ptr %8, align 4, !tbaa !76
  ret void
}

; Function Attrs: mustprogress nounwind uwtable
define linkonce_odr hidden void @_ZN2cv8ximgproc12segmentation15PointSetElementC2Ev(ptr noundef nonnull align 4 dereferenceable(8) %0) unnamed_addr #11 comdat align 2 {
  %2 = alloca ptr, align 8
  store ptr %0, ptr %2, align 8, !tbaa !98
  ret void
}

; Function Attrs: mustprogress uwtable
define hidden void @_ZN2cv8ximgproc12segmentation8PointSetC2Ei(ptr noundef nonnull align 8 dereferenceable(16) %0, i32 noundef %1) unnamed_addr #4 align 2 personality ptr @__gxx_personality_v0 {
  %3 = alloca ptr, align 8
  %4 = alloca i32, align 4
  %5 = alloca ptr, align 8
  %6 = alloca i32, align 4
  %7 = alloca i32, align 4
  %8 = alloca %"class.cv::ximgproc::segmentation::PointSetElement", align 4
  store ptr %0, ptr %3, align 8, !tbaa !65
  store i32 %1, ptr %4, align 4, !tbaa !27
  %9 = load ptr, ptr %3, align 8
  %10 = load i32, ptr %4, align 4, !tbaa !27
  %11 = getelementptr inbounds nuw %"class.cv::ximgproc::segmentation::PointSet", ptr %9, i32 0, i32 0
  store i32 %10, ptr %11, align 8, !tbaa !77
  %12 = getelementptr inbounds nuw %"class.cv::ximgproc::segmentation::PointSet", ptr %9, i32 0, i32 0
  %13 = load i32, ptr %12, align 8, !tbaa !77
  %14 = sext i32 %13 to i64
  %15 = call { i64, i1 } @llvm.umul.with.overflow.i64(i64 %14, i64 8)
  %16 = extractvalue { i64, i1 } %15, 1
  %17 = extractvalue { i64, i1 } %15, 0
  %18 = select i1 %16, i64 -1, i64 %17
  %19 = call noalias noundef nonnull ptr @_Znam(i64 noundef %18) #20
  %20 = icmp eq i64 %14, 0
  br i1 %20, label %28, label %21

21:                                               ; preds = %2
  %22 = getelementptr inbounds %"class.cv::ximgproc::segmentation::PointSetElement", ptr %19, i64 %14
  br label %23

23:                                               ; preds = %25, %21
  %24 = phi ptr [ %19, %21 ], [ %26, %25 ]
  invoke void @_ZN2cv8ximgproc12segmentation15PointSetElementC2Ev(ptr noundef nonnull align 4 dereferenceable(8) %24)
          to label %25 unwind label %36

25:                                               ; preds = %23
  %26 = getelementptr inbounds %"class.cv::ximgproc::segmentation::PointSetElement", ptr %24, i64 1
  %27 = icmp eq ptr %26, %22
  br i1 %27, label %28, label %23

28:                                               ; preds = %2, %25
  %29 = getelementptr inbounds nuw %"class.cv::ximgproc::segmentation::PointSet", ptr %9, i32 0, i32 1
  store ptr %19, ptr %29, align 8, !tbaa !70
  call void @llvm.lifetime.start.p0(i64 4, ptr %7) #3
  store i32 0, ptr %7, align 4, !tbaa !27
  br label %30

30:                                               ; preds = %47, %28
  %31 = load i32, ptr %7, align 4, !tbaa !27
  %32 = getelementptr inbounds nuw %"class.cv::ximgproc::segmentation::PointSet", ptr %9, i32 0, i32 0
  %33 = load i32, ptr %32, align 8, !tbaa !77
  %34 = icmp slt i32 %31, %33
  br i1 %34, label %40, label %35

35:                                               ; preds = %30
  call void @llvm.lifetime.end.p0(i64 4, ptr %7) #3
  br label %50

36:                                               ; preds = %23
  %37 = landingpad { ptr, i32 }
          cleanup
  %38 = extractvalue { ptr, i32 } %37, 0
  store ptr %38, ptr %5, align 8
  %39 = extractvalue { ptr, i32 } %37, 1
  store i32 %39, ptr %6, align 4
  call void @_ZdaPv(ptr noundef %19) #21
  br label %51

40:                                               ; preds = %30
  call void @llvm.lifetime.start.p0(i64 8, ptr %8) #3
  %41 = load i32, ptr %7, align 4, !tbaa !27
  call void @_ZN2cv8ximgproc12segmentation15PointSetElementC2Ei(ptr noundef nonnull align 4 dereferenceable(8) %8, i32 noundef %41)
  %42 = getelementptr inbounds nuw %"class.cv::ximgproc::segmentation::PointSet", ptr %9, i32 0, i32 1
  %43 = load ptr, ptr %42, align 8, !tbaa !70
  %44 = load i32, ptr %7, align 4, !tbaa !27
  %45 = sext i32 %44 to i64
  %46 = getelementptr inbounds %"class.cv::ximgproc::segmentation::PointSetElement", ptr %43, i64 %45
  call void @llvm.memcpy.p0.p0.i64(ptr align 4 %46, ptr align 4 %8, i64 8, i1 false), !tbaa.struct !96
  call void @llvm.lifetime.end.p0(i64 8, ptr %8) #3
  br label %47

47:                                               ; preds = %40
  %48 = load i32, ptr %7, align 4, !tbaa !27
  %49 = add nsw i32 %48, 1
  store i32 %49, ptr %7, align 4, !tbaa !27
  br label %30, !llvm.loop !97

50:                                               ; preds = %35
  ret void

51:                                               ; preds = %36
  %52 = load ptr, ptr %5, align 8
  %53 = load i32, ptr %6, align 4
  %54 = insertvalue { ptr, i32 } poison, ptr %52, 0
  %55 = insertvalue { ptr, i32 } %54, i32 %53, 1
  resume { ptr, i32 } %55
}