; Function Attrs: mustprogress uwtable
define hidden void @_ZN2cv8ximgproc12segmentation8PointSetC2Ei(ptr noundef nonnull align 8 captures(none) dereferenceable(16) initializes((0, 4), (8, 16)) %0, i32 noundef %1) unnamed_addr #3 align 2 personality ptr @__gxx_personality_v0 {
.loopexit:
  store i32 %1, ptr %0, align 8, !tbaa !51
  %2 = zext nneg i32 %1 to i64
  %3 = icmp slt i32 %1, 0
  %4 = shl nuw nsw i64 %2, 3
  %5 = select i1 %3, i64 -1, i64 %4
  %6 = tail call noalias noundef nonnull ptr @_Znam(i64 noundef %5) #22
  %7 = getelementptr inbounds nuw i8, ptr %0, i64 8
  store ptr %6, ptr %7, align 8, !tbaa !54
  %8 = icmp sgt i32 %1, 0
  br i1 %8, label %.lr.ph, label %._crit_edge

._crit_edge:                                      ; preds = %.lr.ph, %.loopexit
  ret void

.lr.ph:                                           ; preds = %.loopexit, %.lr.ph
  %indvars.iv = phi i64 [ %indvars.iv.next, %.lr.ph ], [ 0, %.loopexit ]
  %9 = load ptr, ptr %7, align 8, !tbaa !54
  %10 = getelementptr inbounds nuw %"class.cv::ximgproc::segmentation::PointSetElement", ptr %9, i64 %indvars.iv
  %.sroa.0.0.insert.insert = or disjoint i64 %indvars.iv, 4294967296
  store i64 %.sroa.0.0.insert.insert, ptr %10, align 4
  %indvars.iv.next = add nuw nsw i64 %indvars.iv, 1
  %11 = load i32, ptr %0, align 8, !tbaa !51
  %12 = sext i32 %11 to i64
  %13 = icmp slt i64 %indvars.iv.next, %12
  br i1 %13, label %.lr.ph, label %._crit_edge, !llvm.loop !55
}